target datalayout = "e-m:e-p270:32:32-p271:32:32-p272:64:64-i64:64-i128:128-f80:128-n8:16:32:64-S128"
target triple = "x86_64-pc-linux-gnu"

@.str.7 = private unnamed_addr constant [2 x i8] c",\00", align 1
@.str.23 = private unnamed_addr constant [29 x i8] c"%s: Links is an empty string\00", align 1
@__func__.gres_links_validate = private unnamed_addr constant [20 x i8] c"gres_links_validate\00", align 1
@.str.24 = private unnamed_addr constant [52 x i8] c"%s: Failed to parse token '%s' in links string '%s'\00", align 1
@.str.25 = private unnamed_addr constant [43 x i8] c"%s: links string '%s' has more than one -1\00", align 1
@.str.26 = private unnamed_addr constant [41 x i8] c"%s: -1 wasn't found in links string '%s'\00", align 1

; Function Attrs: nounwind uwtable
define dso_local i32 @gres_links_validate(ptr noundef %0) #0 {
  %2 = alloca i32, align 4
  %3 = alloca ptr, align 8
  %4 = alloca ptr, align 8
  %5 = alloca ptr, align 8
  %6 = alloca ptr, align 8
  %7 = alloca ptr, align 8
  %8 = alloca i64, align 8
  %9 = alloca i32, align 4
  %10 = alloca i32, align 4
  %11 = alloca i32, align 4
  store ptr %0, ptr %3, align 8
  call void @llvm.lifetime.start.p0(i64 8, ptr %4) #11
  call void @llvm.lifetime.start.p0(i64 8, ptr %5) #11
  call void @llvm.lifetime.start.p0(i64 8, ptr %6) #11
  store ptr null, ptr %6, align 8
  call void @llvm.lifetime.start.p0(i64 8, ptr %7) #11
  store ptr null, ptr %7, align 8
  call void @llvm.lifetime.start.p0(i64 8, ptr %8) #11
  call void @llvm.lifetime.start.p0(i64 4, ptr %9) #11
  call void @llvm.lifetime.start.p0(i64 4, ptr %10) #11
  %12 = load ptr, ptr %3, align 8
  %13 = icmp ne ptr %12, null
  br i1 %13, label %15, label %14

14:                                               ; preds = %1
  store i32 -1, ptr %2, align 4
  store i32 1, ptr %11, align 4
  br label %75

15:                                               ; preds = %1
  %16 = load ptr, ptr %3, align 8
  %17 = getelementptr inbounds i8, ptr %16, i64 0
  %18 = load i8, ptr %17, align 1
  %19 = sext i8 %18 to i32
  %20 = icmp eq i32 %19, 0
  br i1 %20, label %21, label %23

21:                                               ; preds = %15
  %22 = call i32 (ptr, ...) @error(ptr noundef @.str.23, ptr noundef @__func__.gres_links_validate)
  store i32 -2, ptr %2, align 4
  store i32 1, ptr %11, align 4
  br label %75

23:                                               ; preds = %15
  %24 = load ptr, ptr %3, align 8
  %25 = call ptr @xstrdup(ptr noundef %24)
  store ptr %25, ptr %4, align 8
  %26 = load ptr, ptr %4, align 8
  %27 = call ptr @strtok_r(ptr noundef %26, ptr noundef @.str.7, ptr noundef %6) #11
  store ptr %27, ptr %5, align 8
  store i32 -1, ptr %9, align 4
  store i32 0, ptr %10, align 4
  br label %28

28:                                               ; preds = %63, %23
  %29 = load ptr, ptr %5, align 8
  %30 = icmp ne ptr %29, null
  br i1 %30, label %31, label %67

31:                                               ; preds = %28
  %32 = load ptr, ptr %5, align 8
  %33 = call i64 @strtol(ptr noundef %32, ptr noundef %7, i32 noundef 10) #11
  store i64 %33, ptr %8, align 8
  %34 = load i64, ptr %8, align 8
  %35 = icmp slt i64 %34, -2
  br i1 %35, label %48, label %36

36:                                               ; preds = %31
  %37 = load i64, ptr %8, align 8
  %38 = icmp sgt i64 %37, 1023
  br i1 %38, label %48, label %39

39:                                               ; preds = %36
  %40 = load i64, ptr %8, align 8
  %41 = icmp eq i64 %40, -9223372036854775808
  br i1 %41, label %48, label %42

42:                                               ; preds = %39
  %43 = load ptr, ptr %7, align 8
  %44 = getelementptr inbounds i8, ptr %43, i64 0
  %45 = load i8, ptr %44, align 1
  %46 = sext i8 %45 to i32
  %47 = icmp ne i32 %46, 0
  br i1 %47, label %48, label %52

48:                                               ; preds = %42, %39, %36, %31
  %49 = load ptr, ptr %5, align 8
  %50 = load ptr, ptr %3, align 8
  %51 = call i32 (ptr, ...) @error(ptr noundef @.str.24, ptr noundef @__func__.gres_links_validate, ptr noundef %49, ptr noundef %50)
  store i32 -2, ptr %9, align 4
  br label %67

52:                                               ; preds = %42
  %53 = load i64, ptr %8, align 8
  %54 = icmp eq i64 %53, -1
  br i1 %54, label %55, label %63

55:                                               ; preds = %52
  %56 = load i32, ptr %9, align 4
  %57 = icmp ne i32 %56, -1
  br i1 %57, label %58, label %61

58:                                               ; preds = %55
  %59 = load ptr, ptr %3, align 8
  %60 = call i32 (ptr, ...) @error(ptr noundef @.str.25, ptr noundef @__func__.gres_links_validate, ptr noundef %59)
  store i32 -2, ptr %9, align 4
  br label %67

61:                                               ; preds = %55
  %62 = load i32, ptr %10, align 4
  store i32 %62, ptr %9, align 4
  br label %63

63:                                               ; preds = %61, %52
  %64 = load i32, ptr %10, align 4
  %65 = add nsw i32 %64, 1
  store i32 %65, ptr %10, align 4
  %66 = call ptr @strtok_r(ptr noundef null, ptr noundef @.str.7, ptr noundef %6) #11
  store ptr %66, ptr %5, align 8
  br label %28, !llvm.loop !27

67:                                               ; preds = %58, %48, %28
  call void @slurm_xfree(ptr noundef %4)
  %68 = load i32, ptr %9, align 4
  %69 = icmp eq i32 %68, -1
  br i1 %69, label %70, label %73

70:                                               ; preds = %67
  %71 = load ptr, ptr %3, align 8
  %72 = call i32 (ptr, ...) @error(ptr noundef @.str.26, ptr noundef @__func__.gres_links_validate, ptr noundef %71)
  store i32 -2, ptr %9, align 4
  br label %73

73:                                               ; preds = %70, %67
  %74 = load i32, ptr %9, align 4
  store i32 %74, ptr %2, align 4
  store i32 1, ptr %11, align 4
  br label %75

75:                                               ; preds = %73, %21, %14
  call void @llvm.lifetime.end.p0(i64 4, ptr %10) #11
  call void @llvm.lifetime.end.p0(i64 4, ptr %9) #11
  call void @llvm.lifetime.end.p0(i64 8, ptr %8) #11
  call void @llvm.lifetime.end.p0(i64 8, ptr %7) #11
  call void @llvm.lifetime.end.p0(i64 8, ptr %6) #11
  call void @llvm.lifetime.end.p0(i64 8, ptr %5) #11
  call void @llvm.lifetime.end.p0(i64 8, ptr %4) #11
  %76 = load i32, ptr %2, align 4
  ret i32 %76
}