; Function Attrs: nounwind uwtable
define dso_local i32 @gres_links_validate(ptr noundef %0) local_unnamed_addr #2 {
  %2 = alloca ptr, align 8
  %3 = alloca ptr, align 8
  %4 = alloca ptr, align 8
  call void @llvm.lifetime.start.p0(i64 8, ptr nonnull %2) #28
  call void @llvm.lifetime.start.p0(i64 8, ptr nonnull %3) #28
  store ptr null, ptr %3, align 8
  call void @llvm.lifetime.start.p0(i64 8, ptr nonnull %4) #28
  store ptr null, ptr %4, align 8
  %.not = icmp eq ptr %0, null
  br i1 %.not, label %31, label %5

5:                                                ; preds = %1
  %6 = load i8, ptr %0, align 1
  %7 = icmp eq i8 %6, 0
  br i1 %7, label %8, label %10

8:                                                ; preds = %5
  %9 = tail call i32 (ptr, ...) @error(ptr noundef nonnull @.str.23, ptr noundef nonnull @__func__.gres_links_validate) #28
  br label %31

10:                                               ; preds = %5
  %11 = tail call ptr @xstrdup(ptr noundef nonnull %0) #28
  store ptr %11, ptr %2, align 8
  %12 = call ptr @strtok_r(ptr noundef %11, ptr noundef nonnull @.str.7, ptr noundef nonnull %3) #28
  %.not2634 = icmp eq ptr %12, null
  br i1 %.not2634, label %._crit_edge.thread, label %.lr.ph

._crit_edge.thread:                               ; preds = %10
  call void @slurm_xfree(ptr noundef nonnull %2) #28
  br label %29

.lr.ph:                                           ; preds = %10, %25
  %.037 = phi i32 [ %26, %25 ], [ 0, %10 ]
  %.02136 = phi i32 [ %.2, %25 ], [ -1, %10 ]
  %.02335 = phi ptr [ %27, %25 ], [ %12, %10 ]
  %13 = call i64 @strtol(ptr noundef nonnull %.02335, ptr noundef nonnull %4, i32 noundef 10) #28
  %14 = add i64 %13, -1024
  %or.cond = icmp ult i64 %14, -1026
  br i1 %or.cond, label %18, label %15

15:                                               ; preds = %.lr.ph
  %16 = load ptr, ptr %4, align 8
  %17 = load i8, ptr %16, align 1
  %.not27 = icmp eq i8 %17, 0
  br i1 %.not27, label %20, label %18

18:                                               ; preds = %15, %.lr.ph
  %19 = call i32 (ptr, ...) @error(ptr noundef nonnull @.str.24, ptr noundef nonnull @__func__.gres_links_validate, ptr noundef nonnull %.02335, ptr noundef nonnull %0) #28
  br label %.thread

20:                                               ; preds = %15
  %21 = icmp eq i64 %13, -1
  br i1 %21, label %22, label %25

22:                                               ; preds = %20
  %.not28 = icmp eq i32 %.02136, -1
  br i1 %.not28, label %25, label %23

23:                                               ; preds = %22
  %24 = call i32 (ptr, ...) @error(ptr noundef nonnull @.str.25, ptr noundef nonnull @__func__.gres_links_validate, ptr noundef nonnull %0) #28
  br label %.thread

25:                                               ; preds = %22, %20
  %.2 = phi i32 [ %.02136, %20 ], [ %.037, %22 ]
  %26 = add nuw nsw i32 %.037, 1
  %27 = call ptr @strtok_r(ptr noundef null, ptr noundef nonnull @.str.7, ptr noundef nonnull %3) #28
  %.not26 = icmp eq ptr %27, null
  br i1 %.not26, label %._crit_edge, label %.lr.ph, !llvm.loop !27

.thread:                                          ; preds = %18, %23
  call void @slurm_xfree(ptr noundef nonnull %2) #28
  br label %31

._crit_edge:                                      ; preds = %25
  call void @slurm_xfree(ptr noundef nonnull %2) #28
  %28 = icmp eq i32 %.2, -1
  br i1 %28, label %29, label %31

29:                                               ; preds = %._crit_edge.thread, %._crit_edge
  %30 = call i32 (ptr, ...) @error(ptr noundef nonnull @.str.26, ptr noundef nonnull @__func__.gres_links_validate, ptr noundef nonnull %0) #28
  br label %31

31:                                               ; preds = %.thread, %._crit_edge, %29, %1, %8
  %.022 = phi i32 [ -2, %8 ], [ -1, %1 ], [ -2, %29 ], [ %.2, %._crit_edge ], [ -2, %.thread ]
  call void @llvm.lifetime.end.p0(i64 8, ptr nonnull %4) #28
  call void @llvm.lifetime.end.p0(i64 8, ptr nonnull %3) #28
  call void @llvm.lifetime.end.p0(i64 8, ptr nonnull %2) #28
  ret i32 %.022
}